
build/bin/lunaix.bin:     file format elf32-i386


Disassembly of section .text:

00100000 <_asm_isr0-0xc>:
  100000:	02 b0 ad 1b 03 00    	add    0x31bad(%eax),%dh
  100006:	00 00                	add    %al,(%eax)
  100008:	fb                   	sti    
  100009:	4f                   	dec    %edi
  10000a:	52                   	push   %edx
  10000b:	e4                 	in     $0x6a,%al

0010000c <_asm_isr0>:
  10000c:	6a 00                	push   $0x0
  10000e:	6a 00                	push   $0x0
  100010:	eb 00                	jmp    100012 <interrupt_wrapper>

00100012 <interrupt_wrapper>:
  100012:	89 e0                	mov    %esp,%eax
  100014:	83 e4 f0             	and    $0xfffffff0,%esp
  100017:	83 ec 10             	sub    $0x10,%esp
  10001a:	89 04 24             	mov    %eax,(%esp)
  10001d:	e8 94 02 00 00       	call   1002b6 <interrupt_handler>
  100022:	58                   	pop    %eax
  100023:	89 c4                	mov    %eax,%esp
  100025:	83 c4 08             	add    $0x8,%esp
  100028:	cf                   	iret   

00100029 <_set_gdt_entry>:
  100029:	55                   	push   %ebp
  10002a:	57                   	push   %edi
  10002b:	56                   	push   %esi
  10002c:	53                   	push   %ebx
  10002d:	8b 44 24 18          	mov    0x18(%esp),%eax
  100031:	25 00 00 00 ff       	and    $0xff000000,%eax
  100036:	0b 44 24 20          	or     0x20(%esp),%eax
  10003a:	89 c2                	mov    %eax,%edx
  10003c:	8b 44 24 1c          	mov    0x1c(%esp),%eax
  100040:	25 00 00 0f 00       	and    $0xf0000,%eax
  100045:	09 c2                	or     %eax,%edx
  100047:	8b 44 24 18          	mov    0x18(%esp),%eax
  10004b:	c1 e8 10             	shr    $0x10,%eax
  10004e:	0f b6 c0             	movzbl %al,%eax
  100051:	09 d0                	or     %edx,%eax
  100053:	ba 00 00 00 00       	mov    $0x0,%edx
  100058:	8b 74 24 14          	mov    0x14(%esp),%esi
  10005c:	89 04 f5 00 10 10 00 	mov    %eax,0x101000(,%esi,8)
  100063:	89 14 f5 04 10 10 00 	mov    %edx,0x101004(,%esi,8)
  10006a:	8b 44 24 14          	mov    0x14(%esp),%eax
  10006e:	8b 14 c5 04 10 10 00 	mov    0x101004(,%eax,8),%edx
  100075:	8b 04 c5 00 10 10 00 	mov    0x101000(,%eax,8),%eax
  10007c:	89 c2                	mov    %eax,%edx
  10007e:	b8 00 00 00 00       	mov    $0x0,%eax
  100083:	8b 74 24 14          	mov    0x14(%esp),%esi
  100087:	89 04 f5 00 10 10 00 	mov    %eax,0x101000(,%esi,8)
  10008e:	89 14 f5 04 10 10 00 	mov    %edx,0x101004(,%esi,8)
  100095:	8b 44 24 14          	mov    0x14(%esp),%eax
  100099:	8b 14 c5 04 10 10 00 	mov    0x101004(,%eax,8),%edx
  1000a0:	8b 04 c5 00 10 10 00 	mov    0x101000(,%eax,8),%eax
  1000a7:	8b 74 24 18          	mov    0x18(%esp),%esi
  1000ab:	89 f7                	mov    %esi,%edi
  1000ad:	c1 e7 10             	shl    $0x10,%edi
  1000b0:	8b 74 24 1c          	mov    0x1c(%esp),%esi
  1000b4:	0f b7 f6             	movzwl %si,%esi
  1000b7:	09 fe                	or     %edi,%esi
  1000b9:	bf 00 00 00 00       	mov    $0x0,%edi
  1000be:	89 c5                	mov    %eax,%ebp
  1000c0:	09 f5                	or     %esi,%ebp
  1000c2:	89 e9                	mov    %ebp,%ecx
  1000c4:	89 d0                	mov    %edx,%eax
  1000c6:	09 f8                	or     %edi,%eax
  1000c8:	89 c3                	mov    %eax,%ebx
  1000ca:	8b 44 24 14          	mov    0x14(%esp),%eax
  1000ce:	89 0c c5 00 10 10 00 	mov    %ecx,0x101000(,%eax,8)
  1000d5:	89 1c c5 04 10 10 00 	mov    %ebx,0x101004(,%eax,8)
  1000dc:	90                   	nop
  1000dd:	5b                   	pop    %ebx
  1000de:	5e                   	pop    %esi
  1000df:	5f                   	pop    %edi
  1000e0:	5d                   	pop    %ebp
  1000e1:	c3                   	ret    

001000e2 <_init_gdt>:
  1000e2:	83 ec 04             	sub    $0x4,%esp
  1000e5:	6a 00                	push   $0x0
  1000e7:	6a 00                	push   $0x0
  1000e9:	6a 00                	push   $0x0
  1000eb:	6a 00                	push   $0x0
  1000ed:	e8 37 ff ff ff       	call   100029 <_set_gdt_entry>
  1000f2:	83 c4 10             	add    $0x10,%esp
  1000f5:	68 00 9a c0 00       	push   $0xc09a00
  1000fa:	68 ff ff 0f 00       	push   $0xfffff
  1000ff:	6a 00                	push   $0x0
  100101:	6a 01                	push   $0x1
  100103:	e8 21 ff ff ff       	call   100029 <_set_gdt_entry>
  100108:	83 c4 10             	add    $0x10,%esp
  10010b:	68 00 92 c0 00       	push   $0xc09200
  100110:	68 ff ff 0f 00       	push   $0xfffff
  100115:	6a 00                	push   $0x0
  100117:	6a 02                	push   $0x2
  100119:	e8 0b ff ff ff       	call   100029 <_set_gdt_entry>
  10011e:	83 c4 10             	add    $0x10,%esp
  100121:	68 00 fa c0 00       	push   $0xc0fa00
  100126:	68 ff ff 0f 00       	push   $0xfffff
  10012b:	6a 00                	push   $0x0
  10012d:	6a 03                	push   $0x3
  10012f:	e8 f5 fe ff ff       	call   100029 <_set_gdt_entry>
  100134:	83 c4 10             	add    $0x10,%esp
  100137:	68 00 f2 c0 00       	push   $0xc0f200
  10013c:	68 ff ff 0f 00       	push   $0xfffff
  100141:	6a 00                	push   $0x0
  100143:	6a 04                	push   $0x4
  100145:	e8 df fe ff ff       	call   100029 <_set_gdt_entry>
  10014a:	83 c4 10             	add    $0x10,%esp
  10014d:	90                   	nop
  10014e:	83 c4 04             	add    $0x4,%esp
  100151:	c3                   	ret    

00100152 <_set_idt_entry>:
  100152:	55                   	push   %ebp
  100153:	57                   	push   %edi
  100154:	56                   	push   %esi
  100155:	53                   	push   %ebx
  100156:	83 ec 1c             	sub    $0x1c,%esp
  100159:	8b 44 24 34          	mov    0x34(%esp),%eax
  10015d:	8b 54 24 3c          	mov    0x3c(%esp),%edx
  100161:	66 89 44 24 04       	mov    %ax,0x4(%esp)
  100166:	89 d0                	mov    %edx,%eax
  100168:	88 04 24             	mov    %al,(%esp)
  10016b:	8b 44 24 38          	mov    0x38(%esp),%eax
  10016f:	89 44 24 14          	mov    %eax,0x14(%esp)
  100173:	8b 44 24 14          	mov    0x14(%esp),%eax
  100177:	66 b8 00 00          	mov    $0x0,%ax
  10017b:	89 c2                	mov    %eax,%edx
  10017d:	0f b6 04 24          	movzbl (%esp),%eax
  100181:	c1 e0 0d             	shl    $0xd,%eax
  100184:	25 00 60 00 00       	and    $0x6000,%eax
  100189:	09 d0                	or     %edx,%eax
  10018b:	80 cc 8e             	or     $0x8e,%ah
  10018e:	ba 00 00 00 00       	mov    $0x0,%edx
  100193:	8b 74 24 30          	mov    0x30(%esp),%esi
  100197:	89 04 f5 40 10 10 00 	mov    %eax,0x101040(,%esi,8)
  10019e:	89 14 f5 44 10 10 00 	mov    %edx,0x101044(,%esi,8)
  1001a5:	8b 44 24 30          	mov    0x30(%esp),%eax
  1001a9:	8b 14 c5 44 10 10 00 	mov    0x101044(,%eax,8),%edx
  1001b0:	8b 04 c5 40 10 10 00 	mov    0x101040(,%eax,8),%eax
  1001b7:	89 c2                	mov    %eax,%edx
  1001b9:	b8 00 00 00 00       	mov    $0x0,%eax
  1001be:	8b 74 24 30          	mov    0x30(%esp),%esi
  1001c2:	89 04 f5 40 10 10 00 	mov    %eax,0x101040(,%esi,8)
  1001c9:	89 14 f5 44 10 10 00 	mov    %edx,0x101044(,%esi,8)
  1001d0:	8b 44 24 30          	mov    0x30(%esp),%eax
  1001d4:	8b 14 c5 44 10 10 00 	mov    0x101044(,%eax,8),%edx
  1001db:	8b 04 c5 40 10 10 00 	mov    0x101040(,%eax,8),%eax
  1001e2:	0f b7 74 24 04       	movzwl 0x4(%esp),%esi
  1001e7:	c1 e6 10             	shl    $0x10,%esi
  1001ea:	89 f7                	mov    %esi,%edi
  1001ec:	8b 74 24 14          	mov    0x14(%esp),%esi
  1001f0:	0f b7 f6             	movzwl %si,%esi
  1001f3:	09 fe                	or     %edi,%esi
  1001f5:	bf 00 00 00 00       	mov    $0x0,%edi
  1001fa:	89 c5                	mov    %eax,%ebp
  1001fc:	09 f5                	or     %esi,%ebp
  1001fe:	89 e9                	mov    %ebp,%ecx
  100200:	89 d0                	mov    %edx,%eax
  100202:	09 f8                	or     %edi,%eax
  100204:	89 c3                	mov    %eax,%ebx
  100206:	8b 44 24 30          	mov    0x30(%esp),%eax
  10020a:	89 0c c5 40 10 10 00 	mov    %ecx,0x101040(,%eax,8)
  100211:	89 1c c5 44 10 10 00 	mov    %ebx,0x101044(,%eax,8)
  100218:	90                   	nop
  100219:	83 c4 1c             	add    $0x1c,%esp
  10021c:	5b                   	pop    %ebx
  10021d:	5e                   	pop    %esi
  10021e:	5f                   	pop    %edi
  10021f:	5d                   	pop    %ebp
  100220:	c3                   	ret    

00100221 <_init_idt>:
  100221:	83 ec 04             	sub    $0x4,%esp
  100224:	6a 00                	push   $0x0
  100226:	68 0c 00 10 00       	push   $0x10000c
  10022b:	6a 08                	push   $0x8
  10022d:	6a 00                	push   $0x0
  10022f:	e8 1e ff ff ff       	call   100152 <_set_idt_entry>
  100234:	83 c4 10             	add    $0x10,%esp
  100237:	90                   	nop
  100238:	83 c4 04             	add    $0x4,%esp
  10023b:	c3                   	ret    

0010023c <start_>:
  10023c:	bc fe 50 10 00       	mov    $0x1050fe,%esp
  100241:	e8 36 02 00 00       	call   10047c <_kernel_init>
  100246:	83 ec 06             	sub    $0x6,%esp
  100249:	c7 44 24 02 00 10 10 	movl   $0x101000,0x2(%esp)
  100250:	00 
  100251:	66 a1 00 60 10 00    	mov    0x106000,%ax
  100257:	66 89 04 24          	mov    %ax,(%esp)
  10025b:	0f 01 14 24          	lgdtl  (%esp)
  10025f:	c7 44 24 02 40 10 10 	movl   $0x101040,0x2(%esp)
  100266:	00 
  100267:	66 a1 02 60 10 00    	mov    0x106002,%ax
  10026d:	66 89 04 24          	mov    %ax,(%esp)
  100271:	0f 01 1c 24          	lidtl  (%esp)
  100275:	83 c4 06             	add    $0x6,%esp
  100278:	66 b9 10 00          	mov    $0x10,%cx
  10027c:	8e c1                	mov    %ecx,%es
  10027e:	8e d9                	mov    %ecx,%ds
  100280:	8e e1                	mov    %ecx,%fs
  100282:	8e e9                	mov    %ecx,%gs
  100284:	8e d1                	mov    %ecx,%ss
  100286:	66 6a 08             	pushw  $0x8
  100289:	68 8f 02 10 00       	push   $0x10028f
  10028e:	cb                   	lret   

0010028f <_after_gdt>:
  10028f:	53                   	push   %ebx
  100290:	e8 f9 01 00 00       	call   10048e <_kernel_main>
  100295:	fa                   	cli    

00100296 <j_>:
  100296:	f4                   	hlt    
  100297:	eb fd                	jmp    100296 <j_>

00100299 <isr0>:
  100299:	83 ec 0c             	sub    $0xc,%esp
  10029c:	e8 77 01 00 00       	call   100418 <tty_clear>
  1002a1:	83 ec 0c             	sub    $0xc,%esp
  1002a4:	68 00 70 10 00       	push   $0x107000
  1002a9:	e8 37 01 00 00       	call   1003e5 <tty_put_str>
  1002ae:	83 c4 10             	add    $0x10,%esp
  1002b1:	90                   	nop
  1002b2:	83 c4 0c             	add    $0xc,%esp
  1002b5:	c3                   	ret    

001002b6 <interrupt_handler>:
  1002b6:	83 ec 0c             	sub    $0xc,%esp
  1002b9:	8b 44 24 10          	mov    0x10(%esp),%eax
  1002bd:	8b 00                	mov    (%eax),%eax
  1002bf:	85 c0                	test   %eax,%eax
  1002c1:	75 10                	jne    1002d3 <interrupt_handler+0x1d>
  1002c3:	83 ec 0c             	sub    $0xc,%esp
  1002c6:	ff 74 24 1c          	push   0x1c(%esp)
  1002ca:	e8 ca ff ff ff       	call   100299 <isr0>
  1002cf:	83 c4 10             	add    $0x10,%esp
  1002d2:	90                   	nop
  1002d3:	90                   	nop
  1002d4:	83 c4 0c             	add    $0xc,%esp
  1002d7:	c3                   	ret    

001002d8 <tty_set_theme>:
  1002d8:	83 ec 08             	sub    $0x8,%esp
  1002db:	8b 54 24 0c          	mov    0xc(%esp),%edx
  1002df:	8b 44 24 10          	mov    0x10(%esp),%eax
  1002e3:	66 89 54 24 04       	mov    %dx,0x4(%esp)
  1002e8:	66 89 04 24          	mov    %ax,(%esp)
  1002ec:	0f b7 04 24          	movzwl (%esp),%eax
  1002f0:	c1 e0 04             	shl    $0x4,%eax
  1002f3:	89 c2                	mov    %eax,%edx
  1002f5:	0f b7 44 24 04       	movzwl 0x4(%esp),%eax
  1002fa:	09 d0                	or     %edx,%eax
  1002fc:	c1 e0 08             	shl    $0x8,%eax
  1002ff:	66 a3 00 51 10 00    	mov    %ax,0x105100
  100305:	90                   	nop
  100306:	83 c4 08             	add    $0x8,%esp
  100309:	c3                   	ret    

0010030a <tty_put_char>:
  10030a:	53                   	push   %ebx
  10030b:	83 ec 18             	sub    $0x18,%esp
  10030e:	8b 44 24 20          	mov    0x20(%esp),%eax
  100312:	88 44 24 0c          	mov    %al,0xc(%esp)
  100316:	80 7c 24 0c 0a       	cmpb   $0xa,0xc(%esp)
  10031b:	75 1f                	jne    10033c <tty_put_char+0x32>
  10031d:	c7 05 04 51 10 00 00 	movl   $0x0,0x105104
  100324:	00 00 00 
  100327:	0f b7 05 08 51 10 00 	movzwl 0x105108,%eax
  10032e:	83 c0 01             	add    $0x1,%eax
  100331:	66 a3 08 51 10 00    	mov    %ax,0x105108
  100337:	e9 81 00 00 00       	jmp    1003bd <tty_put_char+0xb3>
  10033c:	80 7c 24 0c 0d       	cmpb   $0xd,0xc(%esp)
  100341:	75 0c                	jne    10034f <tty_put_char+0x45>
  100343:	c7 05 04 51 10 00 00 	movl   $0x0,0x105104
  10034a:	00 00 00 
  10034d:	eb 6e                	jmp    1003bd <tty_put_char+0xb3>
  10034f:	66 0f be 54 24 0c    	movsbw 0xc(%esp),%dx
  100355:	0f b7 05 00 51 10 00 	movzwl 0x105100,%eax
  10035c:	89 d1                	mov    %edx,%ecx
  10035e:	09 c1                	or     %eax,%ecx
  100360:	8b 1d 04 60 10 00    	mov    0x106004,%ebx
  100366:	0f b7 05 08 51 10 00 	movzwl 0x105108,%eax
  10036d:	0f b7 d0             	movzwl %ax,%edx
  100370:	89 d0                	mov    %edx,%eax
  100372:	c1 e0 02             	shl    $0x2,%eax
  100375:	01 d0                	add    %edx,%eax
  100377:	c1 e0 04             	shl    $0x4,%eax
  10037a:	89 c2                	mov    %eax,%edx
  10037c:	a1 04 51 10 00       	mov    0x105104,%eax
  100381:	01 d0                	add    %edx,%eax
  100383:	01 c0                	add    %eax,%eax
  100385:	01 d8                	add    %ebx,%eax
  100387:	89 ca                	mov    %ecx,%edx
  100389:	66 89 10             	mov    %dx,(%eax)
  10038c:	a1 04 51 10 00       	mov    0x105104,%eax
  100391:	83 c0 01             	add    $0x1,%eax
  100394:	a3 04 51 10 00       	mov    %eax,0x105104
  100399:	a1 04 51 10 00       	mov    0x105104,%eax
  10039e:	83 f8 4f             	cmp    $0x4f,%eax
  1003a1:	76 1a                	jbe    1003bd <tty_put_char+0xb3>
  1003a3:	c7 05 04 51 10 00 00 	movl   $0x0,0x105104
  1003aa:	00 00 00 
  1003ad:	0f b7 05 08 51 10 00 	movzwl 0x105108,%eax
  1003b4:	83 c0 01             	add    $0x1,%eax
  1003b7:	66 a3 08 51 10 00    	mov    %ax,0x105108
  1003bd:	0f b7 05 08 51 10 00 	movzwl 0x105108,%eax
  1003c4:	66 83 f8 18          	cmp    $0x18,%ax
  1003c8:	76 15                	jbe    1003df <tty_put_char+0xd5>
  1003ca:	e8 47 00 00 00       	call   100416 <tty_scroll_up>
  1003cf:	0f b7 05 08 51 10 00 	movzwl 0x105108,%eax
  1003d6:	83 e8 01             	sub    $0x1,%eax
  1003d9:	66 a3 08 51 10 00    	mov    %ax,0x105108
  1003df:	90                   	nop
  1003e0:	83 c4 18             	add    $0x18,%esp
  1003e3:	5b                   	pop    %ebx
  1003e4:	c3                   	ret    

001003e5 <tty_put_str>:
  1003e5:	83 ec 0c             	sub    $0xc,%esp
  1003e8:	eb 1b                	jmp    100405 <tty_put_str+0x20>
  1003ea:	8b 44 24 10          	mov    0x10(%esp),%eax
  1003ee:	0f b6 00             	movzbl (%eax),%eax
  1003f1:	0f be c0             	movsbl %al,%eax
  1003f4:	83 ec 0c             	sub    $0xc,%esp
  1003f7:	50                   	push   %eax
  1003f8:	e8 0d ff ff ff       	call   10030a <tty_put_char>
  1003fd:	83 c4 10             	add    $0x10,%esp
  100400:	83 44 24 10 01       	addl   $0x1,0x10(%esp)
  100405:	8b 44 24 10          	mov    0x10(%esp),%eax
  100409:	0f b6 00             	movzbl (%eax),%eax
  10040c:	84 c0                	test   %al,%al
  10040e:	75 da                	jne    1003ea <tty_put_str+0x5>
  100410:	90                   	nop
  100411:	90                   	nop
  100412:	83 c4 0c             	add    $0xc,%esp
  100415:	c3                   	ret    

00100416 <tty_scroll_up>:
  100416:	90                   	nop
  100417:	c3                   	ret    

00100418 <tty_clear>:
  100418:	83 ec 10             	sub    $0x10,%esp
  10041b:	c7 44 24 0c 00 00 00 	movl   $0x0,0xc(%esp)
  100422:	00 
  100423:	eb 46                	jmp    10046b <tty_clear+0x53>
  100425:	c7 44 24 08 00 00 00 	movl   $0x0,0x8(%esp)
  10042c:	00 
  10042d:	eb 30                	jmp    10045f <tty_clear+0x47>
  10042f:	8b 0d 04 60 10 00    	mov    0x106004,%ecx
  100435:	8b 54 24 08          	mov    0x8(%esp),%edx
  100439:	89 d0                	mov    %edx,%eax
  10043b:	c1 e0 02             	shl    $0x2,%eax
  10043e:	01 d0                	add    %edx,%eax
  100440:	c1 e0 04             	shl    $0x4,%eax
  100443:	89 c2                	mov    %eax,%edx
  100445:	8b 44 24 0c          	mov    0xc(%esp),%eax
  100449:	01 d0                	add    %edx,%eax
  10044b:	01 c0                	add    %eax,%eax
  10044d:	8d 14 01             	lea    (%ecx,%eax,1),%edx
  100450:	0f b7 05 00 51 10 00 	movzwl 0x105100,%eax
  100457:	66 89 02             	mov    %ax,(%edx)
  10045a:	83 44 24 08 01       	addl   $0x1,0x8(%esp)
  10045f:	83 7c 24 08 18       	cmpl   $0x18,0x8(%esp)
  100464:	76 c9                	jbe    10042f <tty_clear+0x17>
  100466:	83 44 24 0c 01       	addl   $0x1,0xc(%esp)
  10046b:	a1 04 51 10 00       	mov    0x105104,%eax
  100470:	39 44 24 0c          	cmp    %eax,0xc(%esp)
  100474:	72 af                	jb     100425 <tty_clear+0xd>
  100476:	90                   	nop
  100477:	90                   	nop
  100478:	83 c4 10             	add    $0x10,%esp
  10047b:	c3                   	ret    

0010047c <_kernel_init>:
  10047c:	83 ec 0c             	sub    $0xc,%esp
  10047f:	e8 5e fc ff ff       	call   1000e2 <_init_gdt>
  100484:	e8 98 fd ff ff       	call   100221 <_init_idt>
  100489:	90                   	nop
  10048a:	83 c4 0c             	add    $0xc,%esp
  10048d:	c3                   	ret    

0010048e <_kernel_main>:
  10048e:	83 ec 0c             	sub    $0xc,%esp
  100491:	83 ec 08             	sub    $0x8,%esp
  100494:	6a 00                	push   $0x0
  100496:	6a 04                	push   $0x4
  100498:	e8 3b fe ff ff       	call   1002d8 <tty_set_theme>
  10049d:	83 c4 10             	add    $0x10,%esp
  1004a0:	cd 00                	int    $0x0
  1004a2:	90                   	nop
  1004a3:	83 c4 0c             	add    $0xc,%esp
  1004a6:	c3                   	ret    
