
build/bin/lunaix.bin:     file format elf32-i386


Disassembly of section .text:

00100000 <start_-0xc>:
  100000:	02 b0 ad 1b 03 00    	add    0x31bad(%eax),%dh
  100006:	00 00                	add    %al,(%eax)
  100008:	fb                   	sti    
  100009:	4f                   	dec    %edi
  10000a:	52                   	push   %edx
  10000b:	e4                 	in     $0xbc,%al

0010000c <start_>:
  10000c:	bc be 4f 10 00       	mov    $0x104fbe,%esp
  100011:	e8 ae 01 00 00       	call   1001c4 <_kernel_init>
  100016:	53                   	push   %ebx
  100017:	e8 aa 01 00 00       	call   1001c6 <_kernel_main>
  10001c:	fa                   	cli    

0010001d <j_>:
  10001d:	f4                   	hlt    
  10001e:	eb fd                	jmp    10001d <j_>

00100020 <tty_set_theme>:
  100020:	83 ec 08             	sub    $0x8,%esp
  100023:	8b 54 24 0c          	mov    0xc(%esp),%edx
  100027:	8b 44 24 10          	mov    0x10(%esp),%eax
  10002b:	66 89 54 24 04       	mov    %dx,0x4(%esp)
  100030:	66 89 04 24          	mov    %ax,(%esp)
  100034:	0f b7 04 24          	movzwl (%esp),%eax
  100038:	c1 e0 04             	shl    $0x4,%eax
  10003b:	89 c2                	mov    %eax,%edx
  10003d:	0f b7 44 24 04       	movzwl 0x4(%esp),%eax
  100042:	09 d0                	or     %edx,%eax
  100044:	c1 e0 08             	shl    $0x8,%eax
  100047:	66 a3 c0 4f 10 00    	mov    %ax,0x104fc0
  10004d:	90                   	nop
  10004e:	83 c4 08             	add    $0x8,%esp
  100051:	c3                   	ret    

00100052 <tty_put_char>:
  100052:	53                   	push   %ebx
  100053:	83 ec 18             	sub    $0x18,%esp
  100056:	8b 44 24 20          	mov    0x20(%esp),%eax
  10005a:	88 44 24 0c          	mov    %al,0xc(%esp)
  10005e:	80 7c 24 0c 0a       	cmpb   $0xa,0xc(%esp)
  100063:	75 1f                	jne    100084 <tty_put_char+0x32>
  100065:	c7 05 c4 4f 10 00 00 	movl   $0x0,0x104fc4
  10006c:	00 00 00 
  10006f:	0f b7 05 c8 4f 10 00 	movzwl 0x104fc8,%eax
  100076:	83 c0 01             	add    $0x1,%eax
  100079:	66 a3 c8 4f 10 00    	mov    %ax,0x104fc8
  10007f:	e9 81 00 00 00       	jmp    100105 <tty_put_char+0xb3>
  100084:	80 7c 24 0c 0d       	cmpb   $0xd,0xc(%esp)
  100089:	75 0c                	jne    100097 <tty_put_char+0x45>
  10008b:	c7 05 c4 4f 10 00 00 	movl   $0x0,0x104fc4
  100092:	00 00 00 
  100095:	eb 6e                	jmp    100105 <tty_put_char+0xb3>
  100097:	66 0f be 54 24 0c    	movsbw 0xc(%esp),%dx
  10009d:	0f b7 05 c0 4f 10 00 	movzwl 0x104fc0,%eax
  1000a4:	89 d1                	mov    %edx,%ecx
  1000a6:	09 c1                	or     %eax,%ecx
  1000a8:	8b 1d 00 50 10 00    	mov    0x105000,%ebx
  1000ae:	0f b7 05 c8 4f 10 00 	movzwl 0x104fc8,%eax
  1000b5:	0f b7 d0             	movzwl %ax,%edx
  1000b8:	89 d0                	mov    %edx,%eax
  1000ba:	c1 e0 02             	shl    $0x2,%eax
  1000bd:	01 d0                	add    %edx,%eax
  1000bf:	c1 e0 04             	shl    $0x4,%eax
  1000c2:	89 c2                	mov    %eax,%edx
  1000c4:	a1 c4 4f 10 00       	mov    0x104fc4,%eax
  1000c9:	01 d0                	add    %edx,%eax
  1000cb:	01 c0                	add    %eax,%eax
  1000cd:	01 d8                	add    %ebx,%eax
  1000cf:	89 ca                	mov    %ecx,%edx
  1000d1:	66 89 10             	mov    %dx,(%eax)
  1000d4:	a1 c4 4f 10 00       	mov    0x104fc4,%eax
  1000d9:	83 c0 01             	add    $0x1,%eax
  1000dc:	a3 c4 4f 10 00       	mov    %eax,0x104fc4
  1000e1:	a1 c4 4f 10 00       	mov    0x104fc4,%eax
  1000e6:	83 f8 4f             	cmp    $0x4f,%eax
  1000e9:	76 1a                	jbe    100105 <tty_put_char+0xb3>
  1000eb:	c7 05 c4 4f 10 00 00 	movl   $0x0,0x104fc4
  1000f2:	00 00 00 
  1000f5:	0f b7 05 c8 4f 10 00 	movzwl 0x104fc8,%eax
  1000fc:	83 c0 01             	add    $0x1,%eax
  1000ff:	66 a3 c8 4f 10 00    	mov    %ax,0x104fc8
  100105:	0f b7 05 c8 4f 10 00 	movzwl 0x104fc8,%eax
  10010c:	66 83 f8 18          	cmp    $0x18,%ax
  100110:	76 15                	jbe    100127 <tty_put_char+0xd5>
  100112:	e8 47 00 00 00       	call   10015e <tty_scroll_up>
  100117:	0f b7 05 c8 4f 10 00 	movzwl 0x104fc8,%eax
  10011e:	83 e8 01             	sub    $0x1,%eax
  100121:	66 a3 c8 4f 10 00    	mov    %ax,0x104fc8
  100127:	90                   	nop
  100128:	83 c4 18             	add    $0x18,%esp
  10012b:	5b                   	pop    %ebx
  10012c:	c3                   	ret    

0010012d <tty_put_str>:
  10012d:	83 ec 0c             	sub    $0xc,%esp
  100130:	eb 1b                	jmp    10014d <tty_put_str+0x20>
  100132:	8b 44 24 10          	mov    0x10(%esp),%eax
  100136:	0f b6 00             	movzbl (%eax),%eax
  100139:	0f be c0             	movsbl %al,%eax
  10013c:	83 ec 0c             	sub    $0xc,%esp
  10013f:	50                   	push   %eax
  100140:	e8 0d ff ff ff       	call   100052 <tty_put_char>
  100145:	83 c4 10             	add    $0x10,%esp
  100148:	83 44 24 10 01       	addl   $0x1,0x10(%esp)
  10014d:	8b 44 24 10          	mov    0x10(%esp),%eax
  100151:	0f b6 00             	movzbl (%eax),%eax
  100154:	84 c0                	test   %al,%al
  100156:	75 da                	jne    100132 <tty_put_str+0x5>
  100158:	90                   	nop
  100159:	90                   	nop
  10015a:	83 c4 0c             	add    $0xc,%esp
  10015d:	c3                   	ret    

0010015e <tty_scroll_up>:
  10015e:	90                   	nop
  10015f:	c3                   	ret    

00100160 <tty_clear>:
  100160:	83 ec 10             	sub    $0x10,%esp
  100163:	c7 44 24 0c 00 00 00 	movl   $0x0,0xc(%esp)
  10016a:	00 
  10016b:	eb 46                	jmp    1001b3 <tty_clear+0x53>
  10016d:	c7 44 24 08 00 00 00 	movl   $0x0,0x8(%esp)
  100174:	00 
  100175:	eb 30                	jmp    1001a7 <tty_clear+0x47>
  100177:	8b 0d 00 50 10 00    	mov    0x105000,%ecx
  10017d:	8b 54 24 08          	mov    0x8(%esp),%edx
  100181:	89 d0                	mov    %edx,%eax
  100183:	c1 e0 02             	shl    $0x2,%eax
  100186:	01 d0                	add    %edx,%eax
  100188:	c1 e0 04             	shl    $0x4,%eax
  10018b:	89 c2                	mov    %eax,%edx
  10018d:	8b 44 24 0c          	mov    0xc(%esp),%eax
  100191:	01 d0                	add    %edx,%eax
  100193:	01 c0                	add    %eax,%eax
  100195:	8d 14 01             	lea    (%ecx,%eax,1),%edx
  100198:	0f b7 05 c0 4f 10 00 	movzwl 0x104fc0,%eax
  10019f:	66 89 02             	mov    %ax,(%edx)
  1001a2:	83 44 24 08 01       	addl   $0x1,0x8(%esp)
  1001a7:	83 7c 24 08 18       	cmpl   $0x18,0x8(%esp)
  1001ac:	76 c9                	jbe    100177 <tty_clear+0x17>
  1001ae:	83 44 24 0c 01       	addl   $0x1,0xc(%esp)
  1001b3:	a1 c4 4f 10 00       	mov    0x104fc4,%eax
  1001b8:	39 44 24 0c          	cmp    %eax,0xc(%esp)
  1001bc:	72 af                	jb     10016d <tty_clear+0xd>
  1001be:	90                   	nop
  1001bf:	90                   	nop
  1001c0:	83 c4 10             	add    $0x10,%esp
  1001c3:	c3                   	ret    

001001c4 <_kernel_init>:
  1001c4:	90                   	nop
  1001c5:	c3                   	ret    

001001c6 <_kernel_main>:
  1001c6:	83 ec 0c             	sub    $0xc,%esp
  1001c9:	83 ec 08             	sub    $0x8,%esp
  1001cc:	6a 01                	push   $0x1
  1001ce:	6a 02                	push   $0x2
  1001d0:	e8 4b fe ff ff       	call   100020 <tty_set_theme>
  1001d5:	83 c4 10             	add    $0x10,%esp
  1001d8:	83 ec 0c             	sub    $0xc,%esp
  1001db:	68 00 60 10 00       	push   $0x106000
  1001e0:	e8 48 ff ff ff       	call   10012d <tty_put_str>
  1001e5:	83 c4 10             	add    $0x10,%esp
  1001e8:	90                   	nop
  1001e9:	83 c4 0c             	add    $0xc,%esp
  1001ec:	c3                   	ret    
